target datalayout = "e-m:e-p270:32:32-p271:32:32-p272:64:64-i64:64-i128:128-f80:128-n8:16:32:64-S128"
target triple = "x86_64-pc-linux-gnu"

%struct.AVTaskCallbacks = type { ptr, i32, ptr, ptr, ptr }
%struct.AVExecutor = type { %struct.AVTaskCallbacks, i32, i8, ptr, ptr, %union.pthread_mutex_t, %union.pthread_cond_t, i32, ptr }
%union.pthread_mutex_t = type { %struct.__pthread_mutex_s }
%struct.__pthread_mutex_s = type { i32, i32, i32, i32, i32, i16, i16, %struct.__pthread_internal_list }
%struct.__pthread_internal_list = type { ptr, ptr }
%union.pthread_cond_t = type { %struct.__pthread_cond_s }
%struct.__pthread_cond_s = type { %union.__atomic_wide_counter, %union.__atomic_wide_counter, [2 x i32], [2 x i32], i32, i32, [2 x i32] }
%union.__atomic_wide_counter = type { i64 }
%struct.ThreadInfo = type { ptr, i64 }

; Function Attrs: nounwind uwtable
define ptr @av_executor_alloc(ptr noundef %0, i32 noundef %1) #0 {
  %3 = alloca ptr, align 8
  %4 = alloca ptr, align 8
  %5 = alloca i32, align 4
  %6 = alloca ptr, align 8
  %7 = alloca i32, align 4
  %8 = alloca i32, align 4
  %9 = alloca i32, align 4
  %10 = alloca ptr, align 8
  store ptr %0, ptr %4, align 8, !tbaa !4
  store i32 %1, ptr %5, align 4, !tbaa !9
  call void @llvm.lifetime.start.p0(i64 8, ptr %6) #5
  call void @llvm.lifetime.start.p0(i64 4, ptr %7) #5
  store i32 0, ptr %7, align 4, !tbaa !9
  call void @llvm.lifetime.start.p0(i64 4, ptr %8) #5
  store i32 0, ptr %8, align 4, !tbaa !9
  %11 = load ptr, ptr %4, align 8, !tbaa !4
  %12 = icmp ne ptr %11, null
  br i1 %12, label %13, label %33

13:                                               ; preds = %2
  %14 = load ptr, ptr %4, align 8, !tbaa !4
  %15 = getelementptr inbounds nuw %struct.AVTaskCallbacks, ptr %14, i32 0, i32 0
  %16 = load ptr, ptr %15, align 8, !tbaa !11
  %17 = icmp ne ptr %16, null
  br i1 %17, label %18, label %33

18:                                               ; preds = %13
  %19 = load ptr, ptr %4, align 8, !tbaa !4
  %20 = getelementptr inbounds nuw %struct.AVTaskCallbacks, ptr %19, i32 0, i32 3
  %21 = load ptr, ptr %20, align 8, !tbaa !13
  %22 = icmp ne ptr %21, null
  br i1 %22, label %23, label %33

23:                                               ; preds = %18
  %24 = load ptr, ptr %4, align 8, !tbaa !4
  %25 = getelementptr inbounds nuw %struct.AVTaskCallbacks, ptr %24, i32 0, i32 4
  %26 = load ptr, ptr %25, align 8, !tbaa !14
  %27 = icmp ne ptr %26, null
  br i1 %27, label %28, label %33

28:                                               ; preds = %23
  %29 = load ptr, ptr %4, align 8, !tbaa !4
  %30 = getelementptr inbounds nuw %struct.AVTaskCallbacks, ptr %29, i32 0, i32 2
  %31 = load ptr, ptr %30, align 8, !tbaa !15
  %32 = icmp ne ptr %31, null
  br i1 %32, label %34, label %33

33:                                               ; preds = %28, %23, %18, %13, %2
  store ptr null, ptr %3, align 8
  store i32 1, ptr %9, align 4
  br label %145

34:                                               ; preds = %28
  %35 = call noalias ptr @av_mallocz(i64 noundef 168)
  store ptr %35, ptr %6, align 8, !tbaa !16
  %36 = load ptr, ptr %6, align 8, !tbaa !16
  %37 = icmp ne ptr %36, null
  br i1 %37, label %39, label %38

38:                                               ; preds = %34
  store ptr null, ptr %3, align 8
  store i32 1, ptr %9, align 4
  br label %145

39:                                               ; preds = %34
  %40 = load ptr, ptr %6, align 8, !tbaa !16
  %41 = getelementptr inbounds nuw %struct.AVExecutor, ptr %40, i32 0, i32 0
  %42 = load ptr, ptr %4, align 8, !tbaa !4
  call void @llvm.memcpy.p0.p0.i64(ptr align 8 %41, ptr align 8 %42, i64 40, i1 false), !tbaa.struct !18
  %43 = load i32, ptr %5, align 4, !tbaa !9
  %44 = icmp sgt i32 %43, 1
  br i1 %44, label %45, label %47

45:                                               ; preds = %39
  %46 = load i32, ptr %5, align 4, !tbaa !9
  br label %48

47:                                               ; preds = %39
  br label %48

48:                                               ; preds = %47, %45
  %49 = phi i32 [ %46, %45 ], [ 1, %47 ]
  %50 = sext i32 %49 to i64
  %51 = load ptr, ptr %6, align 8, !tbaa !16
  %52 = getelementptr inbounds nuw %struct.AVExecutor, ptr %51, i32 0, i32 0
  %53 = getelementptr inbounds nuw %struct.AVTaskCallbacks, ptr %52, i32 0, i32 1
  %54 = load i32, ptr %53, align 8, !tbaa !20
  %55 = sext i32 %54 to i64
  %56 = call noalias ptr @av_calloc(i64 noundef %50, i64 noundef %55)
  %57 = load ptr, ptr %6, align 8, !tbaa !16
  %58 = getelementptr inbounds nuw %struct.AVExecutor, ptr %57, i32 0, i32 4
  store ptr %56, ptr %58, align 8, !tbaa !26
  %59 = load ptr, ptr %6, align 8, !tbaa !16
  %60 = getelementptr inbounds nuw %struct.AVExecutor, ptr %59, i32 0, i32 4
  %61 = load ptr, ptr %60, align 8, !tbaa !26
  %62 = icmp ne ptr %61, null
  br i1 %62, label %64, label %63

63:                                               ; preds = %48
  br label %141

64:                                               ; preds = %48
  %65 = load i32, ptr %5, align 4, !tbaa !9
  %66 = icmp sgt i32 %65, 1
  br i1 %66, label %67, label %69

67:                                               ; preds = %64
  %68 = load i32, ptr %5, align 4, !tbaa !9
  br label %70

69:                                               ; preds = %64
  br label %70

70:                                               ; preds = %69, %67
  %71 = phi i32 [ %68, %67 ], [ 1, %69 ]
  %72 = sext i32 %71 to i64
  %73 = call noalias ptr @av_calloc(i64 noundef %72, i64 noundef 16)
  %74 = load ptr, ptr %6, align 8, !tbaa !16
  %75 = getelementptr inbounds nuw %struct.AVExecutor, ptr %74, i32 0, i32 3
  store ptr %73, ptr %75, align 8, !tbaa !27
  %76 = load ptr, ptr %6, align 8, !tbaa !16
  %77 = getelementptr inbounds nuw %struct.AVExecutor, ptr %76, i32 0, i32 3
  %78 = load ptr, ptr %77, align 8, !tbaa !27
  %79 = icmp ne ptr %78, null
  br i1 %79, label %81, label %80

80:                                               ; preds = %70
  br label %141

81:                                               ; preds = %70
  %82 = load i32, ptr %5, align 4, !tbaa !9
  %83 = icmp ne i32 %82, 0
  br i1 %83, label %86, label %84

84:                                               ; preds = %81
  %85 = load ptr, ptr %6, align 8, !tbaa !16
  store ptr %85, ptr %3, align 8
  store i32 1, ptr %9, align 4
  br label %145

86:                                               ; preds = %81
  %87 = load ptr, ptr %6, align 8, !tbaa !16
  %88 = getelementptr inbounds nuw %struct.AVExecutor, ptr %87, i32 0, i32 5
  %89 = call i32 @pthread_mutex_init(ptr noundef %88, ptr noundef null) #5
  %90 = icmp ne i32 %89, 0
  %91 = xor i1 %90, true
  %92 = zext i1 %91 to i32
  store i32 %92, ptr %7, align 4, !tbaa !9
  %93 = load ptr, ptr %6, align 8, !tbaa !16
  %94 = getelementptr inbounds nuw %struct.AVExecutor, ptr %93, i32 0, i32 6
  %95 = call i32 @pthread_cond_init(ptr noundef %94, ptr noundef null) #5
  %96 = icmp ne i32 %95, 0
  %97 = xor i1 %96, true
  %98 = zext i1 %97 to i32
  store i32 %98, ptr %8, align 4, !tbaa !9
  %99 = load i32, ptr %7, align 4, !tbaa !9
  %100 = icmp ne i32 %99, 0
  br i1 %100, label %101, label %104

101:                                              ; preds = %86
  %102 = load i32, ptr %8, align 4, !tbaa !9
  %103 = icmp ne i32 %102, 0
  br i1 %103, label %105, label %104

104:                                              ; preds = %101, %86
  br label %141

105:                                              ; preds = %101
  br label %106

106:                                              ; preds = %134, %105
  %107 = load ptr, ptr %6, align 8, !tbaa !16
  %108 = getelementptr inbounds nuw %struct.AVExecutor, ptr %107, i32 0, i32 1
  %109 = load i32, ptr %108, align 8, !tbaa !28
  %110 = load i32, ptr %5, align 4, !tbaa !9
  %111 = icmp slt i32 %109, %110
  br i1 %111, label %112, label %139

112:                                              ; preds = %106
  call void @llvm.lifetime.start.p0(i64 8, ptr %10) #5
  %113 = load ptr, ptr %6, align 8, !tbaa !16
  %114 = getelementptr inbounds nuw %struct.AVExecutor, ptr %113, i32 0, i32 3
  %115 = load ptr, ptr %114, align 8, !tbaa !27
  %116 = load ptr, ptr %6, align 8, !tbaa !16
  %117 = getelementptr inbounds nuw %struct.AVExecutor, ptr %116, i32 0, i32 1
  %118 = load i32, ptr %117, align 8, !tbaa !28
  %119 = sext i32 %118 to i64
  %120 = getelementptr inbounds %struct.ThreadInfo, ptr %115, i64 %119
  store ptr %120, ptr %10, align 8, !tbaa !29
  %121 = load ptr, ptr %6, align 8, !tbaa !16
  %122 = load ptr, ptr %10, align 8, !tbaa !29
  %123 = getelementptr inbounds nuw %struct.ThreadInfo, ptr %122, i32 0, i32 0
  store ptr %121, ptr %123, align 8, !tbaa !30
  %124 = load ptr, ptr %10, align 8, !tbaa !29
  %125 = getelementptr inbounds nuw %struct.ThreadInfo, ptr %124, i32 0, i32 1
  %126 = load ptr, ptr %10, align 8, !tbaa !29
  %127 = call i32 @pthread_create(ptr noundef %125, ptr noundef null, ptr noundef @executor_worker_task, ptr noundef %126) #5
  %128 = icmp ne i32 %127, 0
  br i1 %128, label %129, label %130

129:                                              ; preds = %112
  store i32 2, ptr %9, align 4
  br label %131

130:                                              ; preds = %112
  store i32 0, ptr %9, align 4
  br label %131

131:                                              ; preds = %129, %130
  call void @llvm.lifetime.end.p0(i64 8, ptr %10) #5
  %132 = load i32, ptr %9, align 4
  switch i32 %132, label %145 [
    i32 0, label %133
    i32 2, label %141
  ]

133:                                              ; preds = %131
  br label %134

134:                                              ; preds = %133
  %135 = load ptr, ptr %6, align 8, !tbaa !16
  %136 = getelementptr inbounds nuw %struct.AVExecutor, ptr %135, i32 0, i32 1
  %137 = load i32, ptr %136, align 8, !tbaa !28
  %138 = add nsw i32 %137, 1
  store i32 %138, ptr %136, align 8, !tbaa !28
  br label %106, !llvm.loop !33

139:                                              ; preds = %106
  %140 = load ptr, ptr %6, align 8, !tbaa !16
  store ptr %140, ptr %3, align 8
  store i32 1, ptr %9, align 4
  br label %145

141:                                              ; preds = %131, %104, %80, %63
  %142 = load ptr, ptr %6, align 8, !tbaa !16
  %143 = load i32, ptr %7, align 4, !tbaa !9
  %144 = load i32, ptr %8, align 4, !tbaa !9
  call void @executor_free(ptr noundef %142, i32 noundef %143, i32 noundef %144)
  store ptr null, ptr %3, align 8
  store i32 1, ptr %9, align 4
  br label %145

145:                                              ; preds = %141, %139, %131, %84, %38, %33
  call void @llvm.lifetime.end.p0(i64 4, ptr %8) #5
  call void @llvm.lifetime.end.p0(i64 4, ptr %7) #5
  call void @llvm.lifetime.end.p0(i64 8, ptr %6) #5
  %146 = load ptr, ptr %3, align 8
  ret ptr %146
}