; Function Attrs: nounwind uwtable
define ptr @av_executor_alloc(ptr noundef readonly captures(address_is_null) %0, i32 noundef %1) local_unnamed_addr #0 {
  %.not = icmp eq ptr %0, null
  br i1 %.not, label %.loopexit, label %3

3:                                                ; preds = %2
  %4 = load ptr, ptr %0, align 8, !tbaa !4
  %.not45 = icmp eq ptr %4, null
  br i1 %.not45, label %.loopexit, label %5

5:                                                ; preds = %3
  %6 = getelementptr inbounds nuw i8, ptr %0, i64 24
  %7 = load ptr, ptr %6, align 8, !tbaa !10
  %.not46 = icmp eq ptr %7, null
  br i1 %.not46, label %.loopexit, label %8

8:                                                ; preds = %5
  %9 = getelementptr inbounds nuw i8, ptr %0, i64 32
  %10 = load ptr, ptr %9, align 8, !tbaa !11
  %.not47 = icmp eq ptr %10, null
  br i1 %.not47, label %.loopexit, label %11

11:                                               ; preds = %8
  %12 = getelementptr inbounds nuw i8, ptr %0, i64 16
  %13 = load ptr, ptr %12, align 8, !tbaa !12
  %.not48 = icmp eq ptr %13, null
  br i1 %.not48, label %.loopexit, label %14

14:                                               ; preds = %11
  %15 = tail call noalias ptr @av_mallocz(i64 noundef 168) #5
  %.not49 = icmp eq ptr %15, null
  br i1 %.not49, label %.loopexit, label %16

16:                                               ; preds = %14
  tail call void @llvm.memcpy.p0.p0.i64(ptr noundef nonnull align 8 dereferenceable(40) %15, ptr noundef nonnull align 8 dereferenceable(40) %0, i64 40, i1 false), !tbaa.struct !13
  %17 = tail call i32 @llvm.smax.i32(i32 %1, i32 1)
  %18 = zext nneg i32 %17 to i64
  %19 = getelementptr inbounds nuw i8, ptr %15, i64 8
  %20 = load i32, ptr %19, align 8, !tbaa !16
  %21 = sext i32 %20 to i64
  %22 = tail call noalias ptr @av_calloc(i64 noundef %18, i64 noundef %21) #5
  %23 = getelementptr inbounds nuw i8, ptr %15, i64 56
  store ptr %22, ptr %23, align 8, !tbaa !22
  %.not50 = icmp eq ptr %22, null
  br i1 %.not50, label %.loopexit56, label %24

24:                                               ; preds = %16
  %25 = tail call noalias ptr @av_calloc(i64 noundef %18, i64 noundef 16) #5
  %26 = getelementptr inbounds nuw i8, ptr %15, i64 48
  store ptr %25, ptr %26, align 8, !tbaa !23
  %.not51 = icmp eq ptr %25, null
  br i1 %.not51, label %.loopexit56, label %27

27:                                               ; preds = %24
  %.not52 = icmp eq i32 %1, 0
  br i1 %.not52, label %.loopexit, label %28

28:                                               ; preds = %27
  %29 = getelementptr inbounds nuw i8, ptr %15, i64 64
  %30 = tail call i32 @pthread_mutex_init(ptr noundef nonnull %29, ptr noundef null) #5
  %.not53 = icmp eq i32 %30, 0
  %31 = getelementptr inbounds nuw i8, ptr %15, i64 104
  %32 = tail call i32 @pthread_cond_init(ptr noundef nonnull %31, ptr noundef null) #5
  %.not54 = icmp eq i32 %32, 0
  %or.cond = select i1 %.not53, i1 %.not54, i1 false
  br i1 %or.cond, label %.preheader, label %.loopexit56

.preheader:                                       ; preds = %28
  %33 = getelementptr inbounds nuw i8, ptr %15, i64 40
  %34 = load i32, ptr %33, align 8, !tbaa !24
  %35 = icmp slt i32 %34, %1
  br i1 %35, label %.lr.ph, label %.loopexit

.lr.ph:                                           ; preds = %.preheader, %42
  %36 = phi i32 [ %44, %42 ], [ %34, %.preheader ]
  %37 = load ptr, ptr %26, align 8, !tbaa !23
  %38 = sext i32 %36 to i64
  %39 = getelementptr inbounds %struct.ThreadInfo, ptr %37, i64 %38
  store ptr %15, ptr %39, align 8, !tbaa !25
  %40 = getelementptr inbounds nuw i8, ptr %39, i64 8
  %41 = tail call i32 @pthread_create(ptr noundef nonnull %40, ptr noundef null, ptr noundef nonnull @executor_worker_task, ptr noundef nonnull %39) #5
  %.not55 = icmp eq i32 %41, 0
  br i1 %.not55, label %42, label %.loopexit56

42:                                               ; preds = %.lr.ph
  %43 = load i32, ptr %33, align 8, !tbaa !24
  %44 = add nsw i32 %43, 1
  store i32 %44, ptr %33, align 8, !tbaa !24
  %45 = icmp slt i32 %44, %1
  br i1 %45, label %.lr.ph, label %.loopexit, !llvm.loop !29

.loopexit56:                                      ; preds = %.lr.ph, %28, %24, %16
  %.040.shrunk = phi i1 [ %.not53, %28 ], [ false, %24 ], [ false, %16 ], [ true, %.lr.ph ]
  %.039.shrunk = phi i1 [ %.not54, %28 ], [ false, %24 ], [ false, %16 ], [ true, %.lr.ph ]
  %.039 = zext i1 %.039.shrunk to i32
  %.040 = zext i1 %.040.shrunk to i32
  tail call fastcc void @executor_free(ptr noundef %15, i32 noundef %.040, i32 noundef %.039)
  br label %.loopexit

.loopexit:                                        ; preds = %42, %.preheader, %27, %14, %2, %3, %5, %8, %11, %.loopexit56
  %.0 = phi ptr [ null, %.loopexit56 ], [ null, %11 ], [ null, %8 ], [ null, %5 ], [ null, %3 ], [ null, %2 ], [ null, %14 ], [ %15, %27 ], [ %15, %.preheader ], [ %15, %42 ]
  ret ptr %.0
}